target datalayout = "e-m:e-p270:32:32-p271:32:32-p272:64:64-i64:64-i128:128-f80:128-n8:16:32:64-S128"
target triple = "x86_64-pc-linux-gnu"

%class.VMOperationTimeoutTask = type { %class.PeriodicTask, i32, i64, ptr }
%class.PeriodicTask = type { ptr, i32, i32 }
%"struct.Atomic::StoreImpl.14" = type { i8 }
%"struct.Atomic::PlatformOrderedStore.15" = type { i8 }

; Function Attrs: mustprogress nounwind uwtable
define linkonce_odr hidden void @_ZNK6Atomic20PlatformOrderedStoreILm4EL15ScopedFenceType2EEclIiEEvPVT_S4_(ptr noundef nonnull align 1 dereferenceable(1) %0, ptr noundef %1, i32 noundef %2) #1 comdat align 2 {
  %4 = alloca ptr, align 8
  %5 = alloca ptr, align 8
  %6 = alloca i32, align 4
  store ptr %0, ptr %4, align 8
  store ptr %1, ptr %5, align 8
  store i32 %2, ptr %6, align 4
  %7 = load i32, ptr %6, align 4
  %8 = load ptr, ptr %5, align 8
  %9 = call i32 asm sideeffect "xchgl ($2),$0", "=r,0,r,~{memory},~{dirflag},~{fpsr},~{flags}"(i32 %7, ptr %8) #6, !srcloc !28
  store i32 %9, ptr %6, align 4
  ret void
}

; Function Attrs: mustprogress nounwind uwtable
define linkonce_odr hidden void @_ZNK6Atomic9StoreImplIiiNS_20PlatformOrderedStoreILm4EL15ScopedFenceType2EEEvEclEPVii(ptr noundef nonnull align 1 dereferenceable(1) %0, ptr noundef %1, i32 noundef %2) #1 comdat align 2 {
  %4 = alloca ptr, align 8
  %5 = alloca ptr, align 8
  %6 = alloca i32, align 4
  %7 = alloca %"struct.Atomic::PlatformOrderedStore.15", align 1
  store ptr %0, ptr %4, align 8
  store ptr %1, ptr %5, align 8
  store i32 %2, ptr %6, align 4
  %8 = load ptr, ptr %5, align 8
  %9 = load i32, ptr %6, align 4
  call void @_ZNK6Atomic20PlatformOrderedStoreILm4EL15ScopedFenceType2EEclIiEEvPVT_S4_(ptr noundef nonnull align 1 dereferenceable(1) %7, ptr noundef %8, i32 noundef %9)
  ret void
}

; Function Attrs: mustprogress nounwind uwtable
define linkonce_odr hidden void @_ZN6Atomic19release_store_fenceIiiEEvPVT_T0_(ptr noundef %0, i32 noundef %1) #1 comdat align 2 {
  %3 = alloca ptr, align 8
  %4 = alloca i32, align 4
  %5 = alloca %"struct.Atomic::StoreImpl.14", align 1
  store ptr %0, ptr %3, align 8
  store i32 %1, ptr %4, align 4
  %6 = load ptr, ptr %3, align 8
  %7 = load i32, ptr %4, align 4
  call void @_ZNK6Atomic9StoreImplIiiNS_20PlatformOrderedStoreILm4EL15ScopedFenceType2EEEvEclEPVii(ptr noundef nonnull align 1 dereferenceable(1) %5, ptr noundef %6, i32 noundef %7)
  ret void
}

; Function Attrs: mustprogress nounwind uwtable
define hidden void @_ZN22VMOperationTimeoutTask3armEPKc(ptr noundef nonnull align 8 dereferenceable(40) %0, ptr noundef %1) #1 align 2 {
  %3 = alloca ptr, align 8
  %4 = alloca ptr, align 8
  store ptr %0, ptr %3, align 8
  store ptr %1, ptr %4, align 8
  %5 = load ptr, ptr %3, align 8
  %6 = load ptr, ptr %4, align 8
  %7 = getelementptr inbounds %class.VMOperationTimeoutTask, ptr %5, i32 0, i32 3
  store ptr %6, ptr %7, align 8
  %8 = call noundef i64 @_ZN2os13javaTimeNanosEv()
  %9 = getelementptr inbounds %class.VMOperationTimeoutTask, ptr %5, i32 0, i32 2
  store i64 %8, ptr %9, align 8
  %10 = getelementptr inbounds %class.VMOperationTimeoutTask, ptr %5, i32 0, i32 1
  call void @_ZN6Atomic19release_store_fenceIiiEEvPVT_T0_(ptr noundef %10, i32 noundef 1)
  ret void
}