; Function Attrs: mustprogress nounwind uwtable
define hidden void @_ZN22VMOperationTimeoutTask3armEPKc(ptr noundef nonnull align 8 dereferenceable(40) %0, ptr noundef %1) local_unnamed_addr #0 align 2 {
  %3 = getelementptr inbounds i8, ptr %0, i64 32
  store ptr %1, ptr %3, align 8
  %4 = tail call noundef i64 @_ZN2os13javaTimeNanosEv() #13
  %5 = getelementptr inbounds i8, ptr %0, i64 24
  store i64 %4, ptr %5, align 8
  %6 = getelementptr inbounds i8, ptr %0, i64 16
  %7 = tail call i32 asm sideeffect "xchgl ($2),$0", "=r,0,r,~{memory},~{dirflag},~{fpsr},~{flags}"(i32 1, ptr nonnull %6) #13, !srcloc !7
  ret void
}